target datalayout = "e-m:e-p270:32:32-p271:32:32-p272:64:64-i64:64-i128:128-f80:128-n8:16:32:64-S128"
target triple = "x86_64-pc-linux-gnu"

%struct._ffi_type = type { i64, i16, i16, ptr }
%struct._object = type { %union.anon, ptr }
%union.anon = type { i64 }
%struct.PyVarObject = type { %struct._object, i64 }
%struct.PyTupleObject = type { %struct.PyVarObject, [1 x ptr] }
%struct._typeobject = type { %struct.PyVarObject, ptr, i64, i64, ptr, i64, ptr, ptr, ptr, ptr, ptr, ptr, ptr, ptr, ptr, ptr, ptr, ptr, ptr, i64, ptr, ptr, ptr, ptr, i64, ptr, ptr, ptr, ptr, ptr, ptr, ptr, ptr, ptr, i64, ptr, ptr, ptr, ptr, ptr, ptr, ptr, ptr, ptr, ptr, ptr, i32, ptr, ptr, i8, i16 }
%struct.ctypes_state = type { ptr, ptr, ptr, ptr, ptr, ptr, ptr, ptr, ptr, ptr, ptr, ptr, ptr, ptr, ptr, ptr, ptr, ptr, ptr, ptr, ptr, ptr, ptr, ptr, ptr }
%struct.anon = type { i32, i32 }
%struct.StgInfo = type { i32, i64, i64, i64, %struct._ffi_type, ptr, ptr, ptr, ptr, ptr, ptr, ptr, ptr, ptr, i32, ptr, i32, ptr }
%struct.PyModuleObject = type { %struct._object, ptr, ptr, ptr, ptr, ptr }

@PyExc_TypeError = external global ptr, align 8
@.str.64 = private unnamed_addr constant [28 x i8] c"not a ctypes type or object\00", align 1
@.str.65 = private unnamed_addr constant [4 x i8] c"siN\00", align 1

; Function Attrs: inlinehint nounwind uwtable
define internal i32 @PyType_HasFeature(ptr noundef %0, i64 noundef %1) #5 {
  %3 = alloca ptr, align 8
  %4 = alloca i64, align 8
  %5 = alloca i64, align 8
  store ptr %0, ptr %3, align 8, !tbaa !65
  store i64 %1, ptr %4, align 8, !tbaa !32
  call void @llvm.lifetime.start.p0(i64 8, ptr %5) #10
  %6 = load ptr, ptr %3, align 8, !tbaa !65
  %7 = getelementptr inbounds nuw %struct._typeobject, ptr %6, i32 0, i32 19
  %8 = load i64, ptr %7, align 8, !tbaa !90
  store i64 %8, ptr %5, align 8, !tbaa !32
  %9 = load i64, ptr %5, align 8, !tbaa !32
  %10 = load i64, ptr %4, align 8, !tbaa !32
  %11 = and i64 %9, %10
  %12 = icmp ne i64 %11, 0
  %13 = zext i1 %12 to i32
  call void @llvm.lifetime.end.p0(i64 8, ptr %5) #10
  ret i32 %13
}

; Function Attrs: alwaysinline nounwind uwtable
define internal i32 @_Py_IsImmortal(ptr noundef %0) #3 {
  %2 = alloca ptr, align 8
  store ptr %0, ptr %2, align 8, !tbaa !9
  %3 = load ptr, ptr %2, align 8, !tbaa !9
  %4 = getelementptr inbounds nuw %struct._object, ptr %3, i32 0, i32 0
  %5 = getelementptr inbounds nuw %struct.anon, ptr %4, i32 0, i32 0
  %6 = load i32, ptr %5, align 8, !tbaa !16
  %7 = icmp slt i32 %6, 0
  %8 = zext i1 %7 to i32
  ret i32 %8
}

; Function Attrs: inlinehint nounwind uwtable
define internal ptr @_Py_TYPE(ptr noundef %0) #5 {
  %2 = alloca ptr, align 8
  store ptr %0, ptr %2, align 8, !tbaa !9
  %3 = load ptr, ptr %2, align 8, !tbaa !9
  %4 = getelementptr inbounds nuw %struct._object, ptr %3, i32 0, i32 1
  %5 = load ptr, ptr %4, align 8, !tbaa !29
  ret ptr %5
}

; Function Attrs: inlinehint nounwind uwtable
define internal i32 @_stginfo_from_type(ptr noundef %0, ptr noundef %1, ptr noundef %2) #5 {
  %4 = alloca i32, align 4
  %5 = alloca ptr, align 8
  %6 = alloca ptr, align 8
  %7 = alloca ptr, align 8
  %8 = alloca ptr, align 8
  %9 = alloca i32, align 4
  store ptr %0, ptr %5, align 8, !tbaa !3
  store ptr %1, ptr %6, align 8, !tbaa !65
  store ptr %2, ptr %7, align 8, !tbaa !3
  %10 = load ptr, ptr %7, align 8, !tbaa !3
  store ptr null, ptr %10, align 8, !tbaa !3
  %11 = load ptr, ptr %6, align 8, !tbaa !65
  %12 = load ptr, ptr %5, align 8, !tbaa !3
  %13 = getelementptr inbounds nuw %struct.ctypes_state, ptr %12, i32 0, i32 5
  %14 = load ptr, ptr %13, align 8, !tbaa !87
  %15 = call i32 @PyObject_IsInstance(ptr noundef %11, ptr noundef %14)
  %16 = icmp ne i32 %15, 0
  br i1 %16, label %18, label %17

17:                                               ; preds = %3
  store i32 0, ptr %4, align 4
  br label %33

18:                                               ; preds = %3
  call void @llvm.lifetime.start.p0(i64 8, ptr %8) #10
  %19 = load ptr, ptr %6, align 8, !tbaa !65
  %20 = load ptr, ptr %5, align 8, !tbaa !3
  %21 = getelementptr inbounds nuw %struct.ctypes_state, ptr %20, i32 0, i32 5
  %22 = load ptr, ptr %21, align 8, !tbaa !87
  %23 = call ptr @PyObject_GetTypeData(ptr noundef %19, ptr noundef %22)
  store ptr %23, ptr %8, align 8, !tbaa !3
  %24 = load ptr, ptr %8, align 8, !tbaa !3
  %25 = getelementptr inbounds nuw %struct.StgInfo, ptr %24, i32 0, i32 0
  %26 = load i32, ptr %25, align 8, !tbaa !88
  %27 = icmp ne i32 %26, 0
  br i1 %27, label %29, label %28

28:                                               ; preds = %18
  store i32 0, ptr %4, align 4
  store i32 1, ptr %9, align 4
  br label %32

29:                                               ; preds = %18
  %30 = load ptr, ptr %8, align 8, !tbaa !3
  %31 = load ptr, ptr %7, align 8, !tbaa !3
  store ptr %30, ptr %31, align 8, !tbaa !3
  store i32 1, ptr %4, align 4
  store i32 1, ptr %9, align 4
  br label %32

32:                                               ; preds = %29, %28
  call void @llvm.lifetime.end.p0(i64 8, ptr %8) #10
  br label %33

33:                                               ; preds = %32, %17
  %34 = load i32, ptr %4, align 4
  ret i32 %34
}

; Function Attrs: inlinehint nounwind uwtable
define internal i32 @PyType_Check(ptr noundef %0) #5 {
  %2 = alloca ptr, align 8
  store ptr %0, ptr %2, align 8, !tbaa !9
  %3 = load ptr, ptr %2, align 8, !tbaa !9
  %4 = call ptr @_Py_TYPE(ptr noundef %3)
  %5 = call i32 @PyType_HasFeature(ptr noundef %4, i64 noundef 2147483648)
  ret i32 %5
}

; Function Attrs: inlinehint nounwind uwtable
define internal ptr @_PyModule_GetState(ptr noundef %0) #5 {
  %2 = alloca ptr, align 8
  store ptr %0, ptr %2, align 8, !tbaa !9
  %3 = load ptr, ptr %2, align 8, !tbaa !9
  %4 = getelementptr inbounds nuw %struct.PyModuleObject, ptr %3, i32 0, i32 3
  %5 = load ptr, ptr %4, align 8, !tbaa !91
  ret ptr %5
}

; Function Attrs: alwaysinline nounwind uwtable
define internal void @Py_DECREF(ptr noundef %0) #3 {
  %2 = alloca ptr, align 8
  store ptr %0, ptr %2, align 8, !tbaa !9
  %3 = load ptr, ptr %2, align 8, !tbaa !9
  %4 = call i32 @_Py_IsImmortal(ptr noundef %3)
  %5 = icmp ne i32 %4, 0
  br i1 %5, label %6, label %7

6:                                                ; preds = %1
  br label %16

7:                                                ; preds = %1
  %8 = load ptr, ptr %2, align 8, !tbaa !9
  %9 = getelementptr inbounds nuw %struct._object, ptr %8, i32 0, i32 0
  %10 = getelementptr inbounds nuw %struct.anon, ptr %9, i32 0, i32 0
  %11 = load i32, ptr %10, align 8, !tbaa !16
  %12 = add i32 %11, -1
  store i32 %12, ptr %10, align 8, !tbaa !16
  %13 = icmp eq i32 %12, 0
  br i1 %13, label %14, label %16

14:                                               ; preds = %7
  %15 = load ptr, ptr %2, align 8, !tbaa !9
  call void @_Py_Dealloc(ptr noundef %15)
  br label %16

16:                                               ; preds = %6, %14, %7
  ret void
}

; Function Attrs: inlinehint nounwind uwtable
define internal void @PyTuple_SET_ITEM(ptr noundef %0, i64 noundef %1, ptr noundef %2) #5 {
  %4 = alloca ptr, align 8
  %5 = alloca i64, align 8
  %6 = alloca ptr, align 8
  %7 = alloca ptr, align 8
  store ptr %0, ptr %4, align 8, !tbaa !9
  store i64 %1, ptr %5, align 8, !tbaa !32
  store ptr %2, ptr %6, align 8, !tbaa !9
  call void @llvm.lifetime.start.p0(i64 8, ptr %7) #10
  %8 = load ptr, ptr %4, align 8, !tbaa !9
  store ptr %8, ptr %7, align 8, !tbaa !3
  %9 = load ptr, ptr %6, align 8, !tbaa !9
  %10 = load ptr, ptr %7, align 8, !tbaa !3
  %11 = getelementptr inbounds nuw %struct.PyTupleObject, ptr %10, i32 0, i32 1
  %12 = load i64, ptr %5, align 8, !tbaa !32
  %13 = getelementptr [1 x ptr], ptr %11, i64 0, i64 %12
  store ptr %9, ptr %13, align 8, !tbaa !9
  call void @llvm.lifetime.end.p0(i64 8, ptr %7) #10
  ret void
}

; Function Attrs: inlinehint nounwind uwtable
define internal i32 @PyStgInfo_FromAny(ptr noundef %0, ptr noundef %1, ptr noundef %2) #5 {
  %4 = alloca i32, align 4
  %5 = alloca ptr, align 8
  %6 = alloca ptr, align 8
  %7 = alloca ptr, align 8
  store ptr %0, ptr %5, align 8, !tbaa !3
  store ptr %1, ptr %6, align 8, !tbaa !9
  store ptr %2, ptr %7, align 8, !tbaa !3
  %8 = load ptr, ptr %6, align 8, !tbaa !9
  %9 = call i32 @PyType_Check(ptr noundef %8)
  %10 = icmp ne i32 %9, 0
  br i1 %10, label %11, label %16

11:                                               ; preds = %3
  %12 = load ptr, ptr %5, align 8, !tbaa !3
  %13 = load ptr, ptr %6, align 8, !tbaa !9
  %14 = load ptr, ptr %7, align 8, !tbaa !3
  %15 = call i32 @_stginfo_from_type(ptr noundef %12, ptr noundef %13, ptr noundef %14)
  store i32 %15, ptr %4, align 4
  br label %22

16:                                               ; preds = %3
  %17 = load ptr, ptr %5, align 8, !tbaa !3
  %18 = load ptr, ptr %6, align 8, !tbaa !9
  %19 = call ptr @_Py_TYPE(ptr noundef %18)
  %20 = load ptr, ptr %7, align 8, !tbaa !3
  %21 = call i32 @_stginfo_from_type(ptr noundef %17, ptr noundef %19, ptr noundef %20)
  store i32 %21, ptr %4, align 4
  br label %22

22:                                               ; preds = %16, %11
  %23 = load i32, ptr %4, align 4
  ret i32 %23
}

; Function Attrs: inlinehint nounwind uwtable
define internal ptr @get_module_state(ptr noundef %0) #5 {
  %2 = alloca ptr, align 8
  %3 = alloca ptr, align 8
  store ptr %0, ptr %2, align 8, !tbaa !9
  call void @llvm.lifetime.start.p0(i64 8, ptr %3) #10
  %4 = load ptr, ptr %2, align 8, !tbaa !9
  %5 = call ptr @_PyModule_GetState(ptr noundef %4)
  store ptr %5, ptr %3, align 8, !tbaa !3
  %6 = load ptr, ptr %3, align 8, !tbaa !3
  call void @llvm.lifetime.end.p0(i64 8, ptr %3) #10
  ret ptr %6
}

; Function Attrs: nounwind uwtable
define internal ptr @buffer_info(ptr noundef %0, ptr noundef %1) #0 {
  %3 = alloca ptr, align 8
  %4 = alloca ptr, align 8
  %5 = alloca ptr, align 8
  %6 = alloca ptr, align 8
  %7 = alloca i64, align 8
  %8 = alloca ptr, align 8
  %9 = alloca ptr, align 8
  %10 = alloca i32, align 4
  store ptr %0, ptr %4, align 8, !tbaa !9
  store ptr %1, ptr %5, align 8, !tbaa !9
  call void @llvm.lifetime.start.p0(i64 8, ptr %6) #10
  call void @llvm.lifetime.start.p0(i64 8, ptr %7) #10
  call void @llvm.lifetime.start.p0(i64 8, ptr %8) #10
  %11 = load ptr, ptr %4, align 8, !tbaa !9
  %12 = call ptr @get_module_state(ptr noundef %11)
  store ptr %12, ptr %8, align 8, !tbaa !3
  call void @llvm.lifetime.start.p0(i64 8, ptr %9) #10
  %13 = load ptr, ptr %8, align 8, !tbaa !3
  %14 = load ptr, ptr %5, align 8, !tbaa !9
  %15 = call i32 @PyStgInfo_FromAny(ptr noundef %13, ptr noundef %14, ptr noundef %9)
  %16 = icmp slt i32 %15, 0
  br i1 %16, label %17, label %18

17:                                               ; preds = %2
  store ptr null, ptr %3, align 8
  store i32 1, ptr %10, align 4
  br label %67

18:                                               ; preds = %2
  %19 = load ptr, ptr %9, align 8, !tbaa !3
  %20 = icmp eq ptr %19, null
  br i1 %20, label %21, label %23

21:                                               ; preds = %18
  %22 = load ptr, ptr @PyExc_TypeError, align 8, !tbaa !9
  call void @PyErr_SetString(ptr noundef %22, ptr noundef @.str.64)
  store ptr null, ptr %3, align 8
  store i32 1, ptr %10, align 4
  br label %67

23:                                               ; preds = %18
  %24 = load ptr, ptr %9, align 8, !tbaa !3
  %25 = getelementptr inbounds nuw %struct.StgInfo, ptr %24, i32 0, i32 16
  %26 = load i32, ptr %25, align 8, !tbaa !72
  %27 = sext i32 %26 to i64
  %28 = call ptr @PyTuple_New(i64 noundef %27)
  store ptr %28, ptr %6, align 8, !tbaa !9
  %29 = load ptr, ptr %6, align 8, !tbaa !9
  %30 = icmp eq ptr %29, null
  br i1 %30, label %31, label %32

31:                                               ; preds = %23
  store ptr null, ptr %3, align 8
  store i32 1, ptr %10, align 4
  br label %67

32:                                               ; preds = %23
  store i64 0, ptr %7, align 8, !tbaa !32
  br label %33

33:                                               ; preds = %50, %32
  %34 = load i64, ptr %7, align 8, !tbaa !32
  %35 = load ptr, ptr %9, align 8, !tbaa !3
  %36 = getelementptr inbounds nuw %struct.StgInfo, ptr %35, i32 0, i32 16
  %37 = load i32, ptr %36, align 8, !tbaa !72
  %38 = sext i32 %37 to i64
  %39 = icmp slt i64 %34, %38
  br i1 %39, label %40, label %53

40:                                               ; preds = %33
  %41 = load ptr, ptr %6, align 8, !tbaa !9
  %42 = load i64, ptr %7, align 8, !tbaa !32
  %43 = load ptr, ptr %9, align 8, !tbaa !3
  %44 = getelementptr inbounds nuw %struct.StgInfo, ptr %43, i32 0, i32 17
  %45 = load ptr, ptr %44, align 8, !tbaa !73
  %46 = load i64, ptr %7, align 8, !tbaa !32
  %47 = getelementptr i64, ptr %45, i64 %46
  %48 = load i64, ptr %47, align 8, !tbaa !32
  %49 = call ptr @PyLong_FromSsize_t(i64 noundef %48)
  call void @PyTuple_SET_ITEM(ptr noundef %41, i64 noundef %42, ptr noundef %49)
  br label %50

50:                                               ; preds = %40
  %51 = load i64, ptr %7, align 8, !tbaa !32
  %52 = add i64 %51, 1
  store i64 %52, ptr %7, align 8, !tbaa !32
  br label %33, !llvm.loop !74

53:                                               ; preds = %33
  %54 = call ptr @PyErr_Occurred()
  %55 = icmp ne ptr %54, null
  br i1 %55, label %56, label %58

56:                                               ; preds = %53
  %57 = load ptr, ptr %6, align 8, !tbaa !9
  call void @Py_DECREF(ptr noundef %57)
  store ptr null, ptr %3, align 8
  store i32 1, ptr %10, align 4
  br label %67

58:                                               ; preds = %53
  %59 = load ptr, ptr %9, align 8, !tbaa !3
  %60 = getelementptr inbounds nuw %struct.StgInfo, ptr %59, i32 0, i32 15
  %61 = load ptr, ptr %60, align 8, !tbaa !75
  %62 = load ptr, ptr %9, align 8, !tbaa !3
  %63 = getelementptr inbounds nuw %struct.StgInfo, ptr %62, i32 0, i32 16
  %64 = load i32, ptr %63, align 8, !tbaa !72
  %65 = load ptr, ptr %6, align 8, !tbaa !9
  %66 = call ptr (ptr, ...) @Py_BuildValue(ptr noundef @.str.65, ptr noundef %61, i32 noundef %64, ptr noundef %65)
  store ptr %66, ptr %3, align 8
  store i32 1, ptr %10, align 4
  br label %67

67:                                               ; preds = %58, %56, %31, %21, %17
  call void @llvm.lifetime.end.p0(i64 8, ptr %9) #10
  call void @llvm.lifetime.end.p0(i64 8, ptr %8) #10
  call void @llvm.lifetime.end.p0(i64 8, ptr %7) #10
  call void @llvm.lifetime.end.p0(i64 8, ptr %6) #10
  %68 = load ptr, ptr %3, align 8
  ret ptr %68
}