; Function Attrs: nounwind uwtable
define internal ptr @buffer_info(ptr noundef readonly captures(none) %0, ptr noundef %1) #0 {
  %3 = getelementptr i8, ptr %0, i64 32
  %.val = load ptr, ptr %3, align 8, !tbaa !56
  %4 = getelementptr i8, ptr %1, i64 8
  %.val7.i = load ptr, ptr %4, align 8, !tbaa !30
  %5 = getelementptr i8, ptr %.val7.i, i64 168
  %.val7.val.i = load i64, ptr %5, align 8, !tbaa !51
  %6 = and i64 %.val7.val.i, 2147483648
  %.not12.i = icmp eq i64 %6, 0
  %7 = getelementptr inbounds nuw i8, ptr %.val, i64 40
  %8 = load ptr, ptr %7, align 8, !tbaa !21
  br i1 %.not12.i, label %15, label %9

9:                                                ; preds = %2
  %10 = tail call i32 @PyObject_IsInstance(ptr noundef nonnull %1, ptr noundef %8) #10
  %.not.i.i = icmp eq i32 %10, 0
  br i1 %.not.i.i, label %21, label %11

11:                                               ; preds = %9
  %12 = load ptr, ptr %7, align 8, !tbaa !21
  %13 = tail call ptr @PyObject_GetTypeData(ptr noundef nonnull %1, ptr noundef %12) #10
  %14 = load i32, ptr %13, align 8, !tbaa !22
  %.not8.i.i = icmp eq i32 %14, 0
  br i1 %.not8.i.i, label %21, label %PyStgInfo_FromAny.exit

15:                                               ; preds = %2
  %16 = tail call i32 @PyObject_IsInstance(ptr noundef nonnull %.val7.i, ptr noundef %8) #10
  %.not.i8.i = icmp eq i32 %16, 0
  br i1 %.not.i8.i, label %21, label %17

17:                                               ; preds = %15
  %18 = load ptr, ptr %7, align 8, !tbaa !21
  %19 = tail call ptr @PyObject_GetTypeData(ptr noundef nonnull %.val7.i, ptr noundef %18) #10
  %20 = load i32, ptr %19, align 8, !tbaa !22
  %.not8.i9.i = icmp eq i32 %20, 0
  br i1 %.not8.i9.i, label %21, label %PyStgInfo_FromAny.exit

21:                                               ; preds = %15, %17, %9, %11
  %22 = load ptr, ptr @PyExc_TypeError, align 8, !tbaa !3
  tail call void @PyErr_SetString(ptr noundef %22, ptr noundef nonnull @.str.64) #10
  br label %Py_DECREF.exit

PyStgInfo_FromAny.exit:                           ; preds = %17, %11
  %.sink.i = phi ptr [ %13, %11 ], [ %19, %17 ]
  %23 = getelementptr inbounds nuw i8, ptr %.sink.i, i64 144
  %24 = load i32, ptr %23, align 8, !tbaa !62
  %25 = sext i32 %24 to i64
  %26 = tail call ptr @PyTuple_New(i64 noundef %25) #10
  %27 = icmp eq ptr %26, null
  br i1 %27, label %Py_DECREF.exit, label %.preheader

.preheader:                                       ; preds = %PyStgInfo_FromAny.exit
  %28 = load i32, ptr %23, align 8, !tbaa !62
  %29 = icmp sgt i32 %28, 0
  br i1 %29, label %.lr.ph, label %._crit_edge

.lr.ph:                                           ; preds = %.preheader
  %30 = getelementptr inbounds nuw i8, ptr %.sink.i, i64 152
  %31 = getelementptr inbounds nuw i8, ptr %26, i64 24
  br label %32

32:                                               ; preds = %.lr.ph, %32
  %.01118 = phi i64 [ 0, %.lr.ph ], [ %38, %32 ]
  %33 = load ptr, ptr %30, align 8, !tbaa !63
  %34 = getelementptr i64, ptr %33, i64 %.01118
  %35 = load i64, ptr %34, align 8, !tbaa !64
  %36 = tail call ptr @PyLong_FromSsize_t(i64 noundef %35) #10
  %37 = getelementptr [1 x ptr], ptr %31, i64 0, i64 %.01118
  store ptr %36, ptr %37, align 8, !tbaa !3
  %38 = add nuw nsw i64 %.01118, 1
  %39 = load i32, ptr %23, align 8, !tbaa !62
  %40 = sext i32 %39 to i64
  %41 = icmp slt i64 %38, %40
  br i1 %41, label %32, label %._crit_edge, !llvm.loop !65

._crit_edge:                                      ; preds = %32, %.preheader
  %42 = tail call ptr @PyErr_Occurred() #10
  %.not = icmp eq ptr %42, null
  br i1 %.not, label %49, label %43

43:                                               ; preds = %._crit_edge
  %44 = load i32, ptr %26, align 8, !tbaa !11
  %.not.i = icmp sgt i32 %44, -1
  br i1 %.not.i, label %45, label %Py_DECREF.exit

45:                                               ; preds = %43
  %46 = add nsw i32 %44, -1
  store i32 %46, ptr %26, align 8, !tbaa !11
  %47 = icmp eq i32 %46, 0
  br i1 %47, label %48, label %Py_DECREF.exit

48:                                               ; preds = %45
  tail call void @_Py_Dealloc(ptr noundef nonnull %26) #10
  br label %Py_DECREF.exit

49:                                               ; preds = %._crit_edge
  %50 = getelementptr inbounds nuw i8, ptr %.sink.i, i64 136
  %51 = load ptr, ptr %50, align 8, !tbaa !66
  %52 = load i32, ptr %23, align 8, !tbaa !62
  %53 = tail call ptr (ptr, ...) @Py_BuildValue(ptr noundef nonnull @.str.65, ptr noundef %51, i32 noundef %52, ptr noundef nonnull %26) #10
  br label %Py_DECREF.exit

Py_DECREF.exit:                                   ; preds = %48, %45, %43, %PyStgInfo_FromAny.exit, %49, %21
  %.0 = phi ptr [ null, %21 ], [ %53, %49 ], [ null, %PyStgInfo_FromAny.exit ], [ null, %43 ], [ null, %45 ], [ null, %48 ]
  ret ptr %.0
}